c__builtin__
set
p1
((lp2
Vhttp://rue89.feedsportal.com/c/33822/f/608948/s/243c13d7/l/0L0Srue890N0C20A120C10A0C0A80Cbienvenue0Edans0Ele0Elycee0Eou0Elon0Edoit0Esigner0Esa0Edemission0Epour0Esinscrire0E235722/story01.htm
p3
aVhttp://rue89.feedsportal.com/c/33822/f/608948/s/2437c09a/l/0L0Srue890N0Crue890Eculture0Czapnet0C20A120C10A0C0A70Cune0Evie0Ede0Emoins0Ezebda0Eet0Ejean0Epierre0Efiliu0Echante0Epour0Egaza0E235965/story01.htm
p4
aVhttp://rue89.feedsportal.com/c/33822/f/608948/s/2434dec4/l/0L0Srue890N0Crue890Epolitique0C20A120C10A0C0A70Clionnel0Eluca0Eles0E20Ejeunes0Edechirolles0Emorts0Ecar0Etrop0Eassimiles0E235960A/story01.htm
p5
aVhttp://rue89.feedsportal.com/c/33822/f/608948/s/243b1730/l/0L0Srue890N0C20A120C10A0C0A80Cpourquoi0Eles0Emedias0Ene0Edevraient0Epas0Emordre0Ele0Epain0Eau0Echocolat0Ede0Ecope0E235976/story01.htm
p6
aVhttp://rue89.feedsportal.com/c/33822/f/608948/s/2435ae89/l/0L0Srue890N0C20A120C10A0C0A70Cquest0Ece0Equon0Eattend0Epour0Ereformer0Ela0Etaxe0Edhabitation0E235599/story01.htm
p7
aVhttp://rue89.feedsportal.com/c/33822/f/608948/s/2439d5a6/l/0L0Srue890N0C20A120C0A90C180Cles0Esalafistes0Een0Efrance0Eun0Eprobleme0Esocial0Epas0Ereligieux0E23540A2/story01.htm
p8
aVhttp://rue89.feedsportal.com/c/33822/f/608948/s/2430f60f/l/0L0Srue890N0C20A120C10A0C0A60Clirm0Efonctionnelle0Esalut0Eje0Esuis0Eton0Ecerveau0Eet0Eje0Evais0Etenvoyer0Een0Eprison0E235476/story01.htm
p9
aVhttp://rue89.feedsportal.com/c/33822/f/608948/s/2435ab1c/l/0Lblogs0Brue890N0Cwieviorka0C20A120C10A0C0A60Ccirconcision0Eet0Ehalal0Eles0Ehabits0Euniversalistes0Ede0Elintolerance0Eet0Edu/story01.htm
p10
aVhttp://rue89.feedsportal.com/c/33822/f/608948/s/2434022f/l/0L0Srue890N0C20A120C10A0C0A70Cchaos0Een0Esyrie0Edans0Eles0Edeux0Ecamps0Ekidnappe0Epour0Ede0Elargent0E235949/story01.htm
p11
aVhttp://rue89.feedsportal.com/c/33822/f/608948/s/242f5a23/l/0L0Srue890N0Crue890Epolitique0C20A120C10A0C0A60Cpain0Eau0Echocolat0Enouvelle0Eprovocation0Ede0Ejean0Efrancois0Ecope0Etournee0Een/story01.htm
p12
aVhttp://rue89.feedsportal.com/c/33822/f/608948/s/24337df8/l/0L0Srue890N0Crue890Esport0C20A120C10A0C0A70Cavant0Eom0Epsg0Edecouvrez0Emarco0Everratti0Ele0Ecrack0Einattendu0Ede0Eparis0E235932/story01.htm
p13
aVhttp://rue89.feedsportal.com/c/33822/f/608948/s/24352bae/l/0L0Srue890N0Crue890Esport0C20A120C10A0C0A70Cet0Eoui0Eetre0Emarseillais0Eet0Esupporter0Edu0Epsg0Ecest0Epossible0E235945/story01.htm
p14
aVhttp://rue89.feedsportal.com/c/33822/f/608948/s/24305ccd/l/0Lblogs0Brue890N0Cdroles0Ede0Egammes0C20A120C10A0C0A60Cboris0Eberezovsky0Ele0Epiano0Epour0Eforteresse0E22860A0A/story01.htm
p15
aVhttp://rue89.feedsportal.com/c/33822/f/608948/s/242f5a27/l/0L0Srue890N0C20A120C10A0C0A60Clalgorithme0Ede0Egoogle0Esur0Erue890Eet0Edans0Eplace0Ede0Ela0Etoile0Esur0Efrance0Eculture0E235934/story01.htm
p16
aVhttp://rue89.feedsportal.com/c/33822/f/608948/s/243b772e/l/0Lblogs0Brue890N0Clundismatin0C20A120C10A0C0A80Csarah0Epharmacienne0Enous0Esommes0Eceux0Eauxquels0Eles0Egens0Ese0Econfient0Ele0Eplus/story01.htm
p17
aVhttp://rue89.feedsportal.com/c/33822/f/608948/s/243650f7/l/0Lblogs0Brue890N0Cseries0Etelling0C20A120C10A0C0A70Chomeland0Ele0Eposter0Eboy0Eet0Ela0Ebipolaire0Equi0Emanquaient0Eloriginal0Eisraelien/story01.htm
p18
aVhttp://rue89.feedsportal.com/c/33822/f/608948/s/2433fe6c/l/0L0Srue890N0Cnode0C235952/story01.htm
p19
aVhttp://rue89.feedsportal.com/c/33822/f/608948/s/24340d93/l/0L0Srue890N0Crue890Eculture0C20A120C10A0C0A70Ceh0Emec0Eelle0Eest0Eou0Eta0Epremiere0Ecaisse0Ecinq0Erappeurs0Ese0Esouviennent0E235954/story01.htm
p20
aVhttp://rue89.feedsportal.com/c/33822/f/608948/s/242f0577/l/0L0Srue890N0C20A120C10A0C0A60Cun0Ehomme0Eabattu0Estrasbourg0Eun0Epolicier0Eraconte0Eloperation0Eantiterroriste0E235942/story01.htm
p21
aVhttp://rue89.feedsportal.com/c/33822/f/608948/s/2439da3d/l/0L0Srue890N0Cnode0C235973/story01.htm
p22
aVhttp://rue89.feedsportal.com/c/33822/f/608948/s/2430fa72/l/0L0Srue890N0Crue890Esport0Czapnet0C20A120C10A0C0A60Cles0Evignerons0Ealsaciens0Eont0Ede0Equoi0Een0Evouloir0Eau0Epilote0Ede0Erallye/story01.htm
p23
aVhttp://rue89.feedsportal.com/c/33822/f/608948/s/2437060d/l/0L0Srue890N0Crue890Esport0C20A120C10A0C0A70Csuivez0Ele0Echoc0Eom0Epsg0Een0Edirect0Emais0Echoisissez0Evotre0Ecamp0E235899/story01.htm
p24
aVhttp://rue89.feedsportal.com/c/33822/f/608948/s/2433e002/l/0Lblogs0Brue890N0Camerique0Edans0Ela0Epeau0C20A120C10A0C0A70Cetats0Eunis0Emitt0Eromney0Epresident0Esouriez0Evous0Eetes0Evires0E22860A6/story01.htm
p25
aVhttp://rue89.feedsportal.com/c/33822/f/608948/s/24348f30/l/0L0Srue890N0C20A120C10A0C0A70Cchine0Ecanton0Ela0Eresistance0Esans0Eespoir0Edes0Ehabitants0Eexpulses0E235933/story01.htm
p26
aVhttp://rue89.feedsportal.com/c/33822/f/608948/s/24315246/l/0L0Srue890N0C20A120C10A0C0A60Cje0Eme0Esouviens0Ede0Edirect0E80Een0Ehuit0Evideos0E235925/story01.htm
p27
atRp28
.