c__builtin__
set
p1
((lp2
Vhttp://rue89.feedsportal.com/c/33822/f/608948/s/245ffd79/l/0L0Srue890N0Crue890Eeco0C20A120C10A0C110Cle0Efmi0Edecouvre0Eque0Elausterite0Eest0Ebien0Eplus0Enocive0Eque0Eprevu0E236111/story01.htm
p3
aVhttp://rue89.feedsportal.com/c/33822/f/608948/s/2449f307/l/0L0Srue890N0Crue890Epolitique0C20A120C10A0C0A90Cpour0Eou0Econtre0Elecole0Ele0Emercredi0E2360A24/story01.htm
p4
aVhttp://rue89.feedsportal.com/c/33822/f/608948/s/243d17bb/l/0L0Srue89lyon0Bfr0C20A120C10A0C0A60Cle0Ecolloque0Equi0Eexaspere0Eles0Eprostituees0Elyonnaises0C/story01.htm
p5
aVhttp://rue89.feedsportal.com/c/33822/f/608948/s/248751f0/l/0L0Srue890N0C20A120C10A0C160Cl0Ealyah0Een0Eisrael0Eun0Eaboutissement0Epour0Eles0Ejuifs0Efrancais0E236215/story01.htm
p6
aVhttp://rue89.feedsportal.com/c/33822/f/608948/s/2490ada5/l/0Lblogs0Brue890N0Coelpv0C20A120C10A0C170Cmexique0Escenes0Ede0Ecrimes0Een0Ecampagne0E228648/story01.htm
p7
aVhttp://rue89.feedsportal.com/c/33822/f/608948/s/247bf6cd/l/0L0Srue890N0C20A120C10A0C150Cpesticides0Ele0Egauchiste0Ede0Elonu0Equi0Einspire0Emarie0Emonique0Erobin0E236114/story01.htm
p8
aVhttp://rue89.feedsportal.com/c/33822/f/608948/s/24aea9f4/l/0L0Srue890N0Crue890Eculture0C20A120C10A0C20A0Cavenida0Ebrasil0Ela0Eserie0Etele0Equi0Efait0Echanger0Elagenda0Ede0Ela0Epresidente0Edu/story01.htm
p9
aVhttp://rue89.feedsportal.com/c/33822/f/608948/s/243f15a7/l/0L0Srue890N0Czapnet0C20A120C10A0C0A80Cdeux0Emots0Epour0Emettre0Edelahousse0Emal0Elaise0Equeutard0Eet0Epujadas0E235996/story01.htm
p10
aVhttp://rue89.feedsportal.com/c/33822/f/608948/s/2449e32c/l/0L0Srue890N0C20A120C10A0C0A90Cun0Evigile0Etape0Eun0Eetudiant0Eil0Enavait0Epas0Ecompris0Eque0Ecetait0Eun0Ecours0E2360A20A/story01.htm
p11
aVhttp://rue89.feedsportal.com/c/33822/f/608948/s/24761943/l/0Lblogs0Brue890N0Clundismatin0C20A120C10A0C140Cmonique0Epodologue0Enest0Epas0Etrop0Egenee0Epar0Enos0Eodeurs0Ede0Epieds0E228663/story01.htm
p12
aVhttp://rue89.feedsportal.com/c/33822/f/608948/s/2484d8fd/l/0L0Srue890N0Crue890Esport0C20A120C10A0C160Crugby0Efrancais0Echerche0Epilier0Edroit0Eun0Edes0Epostes0Eles0Eplus0Etechniques0E23610A5/story01.htm
p13
aVhttp://rue89.feedsportal.com/c/33822/f/608948/s/2499c121/l/0L0Srue890N0C20A120C10A0C180Cje0Ecours0Edonc0Eje0Esuis0Ele0Ephilosophe0Equi0Erehabilite0Ele0Ejogging0E236174/story01.htm
p14
aVhttp://rue89.feedsportal.com/c/33822/f/608948/s/24aab3fc/l/0L0Srue890N0C20A120C10A0C190Ccomment0Ela0Ebelle0Econstitution0E20A0Ede0Elislande0Emenace0Ede0Ederailler0E236352/story01.htm
p15
aVhttp://rue89.feedsportal.com/c/33822/f/608948/s/247c602d/l/0L0Srue890N0Crue890Eplanete0C20A120C10A0C150Carnaud0Emontebourg0Ese0Edefile0Esur0Elaeroport0Enotre0Edame0Edes0Elandes0E23620A0A/story01.htm
p16
aVhttp://rue89.feedsportal.com/c/33822/f/608948/s/24ab68f6/l/0L0Srue890N0Crue890Esport0C20A120C10A0C190Cles0Eespoirs0Esont0Edes0Esalauds0Emais0Edepuis0Equand0Eles0Efooteux0Esont0Eils0Esages/story01.htm
p17
aVhttp://rue89.feedsportal.com/c/33822/f/608948/s/244ee824/l/0L0Srue890N0C20A120C10A0C10A0Ccomment0Ene0Emarche0Epas0Ela0Epresse0E2360A41/story01.htm
p18
aVhttp://rue89.feedsportal.com/c/33822/f/608948/s/24a82437/l/0L0Srue890N0Crue890Eplanete0C20A120C10A0C190Cpro0Eloup0Ejai0Erencontre0Ebruno0Eun0Eanti0Eeleveur0Een0Elozere0E2360A0A5/story01.htm
p19
aVhttp://rue89.feedsportal.com/c/33822/f/608948/s/2453770d/l/0Lblogs0Brue890N0Cyeti0Evoyageur0C20A120C10A0C10A0Cla0Epresidence0Edobama0Eun0Esouffle0Evite0Eretombe0E228628/story01.htm
p20
aVhttp://rue89.feedsportal.com/c/33822/f/608948/s/2454b664/l/0L0Srue890N0Crue890Esport0C20A120C10A0C10A0Cles0Efreres0Ekarabatic0Eont0Echoisi0Eparis0Ematch0Epour0Eparler0E2360A77/story01.htm
p21
aVhttp://rue89.feedsportal.com/c/33822/f/608948/s/2489b4a6/l/0L0Srue890N0C20A120C10A0C160Cjeu0Ede0Enouveaux0Eriches0Een0Echine0Edeux0Eferrari0Ecrashees0E236247/story01.htm
p22
aVhttp://rue89.feedsportal.com/c/33822/f/608948/s/245b8949/l/0Lblogs0Brue890N0Coelpv0C20A120C10A0C110Cles0Eautruches0Eerrantes0Ede0Efukushima0Eex0Emascottes0Ede0Ela0Ecentrale0E228631/story01.htm
p23
aVhttp://rue89.feedsportal.com/c/33822/f/608948/s/249abbd5/l/0L0Srue890N0Crue690C20A120C10A0C180Cfaites0Elamour0Epas0Ele0Eporno0Ele0Esite0Een0Efinit0Eavec0Eles0Ecliches0Edu0Ex0E23630A8/story01.htm
p24
aVhttp://rue89.feedsportal.com/c/33822/f/608948/s/24b1bb71/l/0L0Srue890N0Crue890Esport0C20A120C10A0C20A0Cpeut0Efaire0Edu0Epaintball0Esans0Eetre0Edes0Efachos0Equi0Ejouent0Ela0Egueguerre0E236364/story01.htm
p25
aVhttp://rue89.feedsportal.com/c/33822/f/608948/s/24a091fb/l/0L0Srue890N0C20A120C10A0C180Cnatacha0Ehotesse0Ede0Elair0Ele0Ecorps0Ese0Egonfle0Eet0Ese0Eretracte0Esans0Ecesse0E236312/story01.htm
p26
aVhttp://rue89.feedsportal.com/c/33822/f/608948/s/24bb912b/l/0L0Srue890N0C20A120C10A0C220Cdesert0Emedical0Eun0Efait0Edivers0Ede0Egauche0E23640A3/story01.htm
p27
aVhttp://rue89.feedsportal.com/c/33822/f/608948/s/24693663/l/0L0Srue890N0C20A120C10A0C120Cle0Eplus0Edur0Epour0Epatrice0Ecpe0Edans0Eun0Elycee0Eles0Econseils0Ede0Ediscipline0E2360A30A/story01.htm
p28
aVhttp://rue89.feedsportal.com/c/33822/f/608948/s/243e8309/l/0L0Srue890N0Crue890Epolitique0C20A120C10A0C0A80Csi0Em0Emoscovici0Evous0Emenez0Eune0Epolitique0Edausterite0E235978/story01.htm
p29
aVhttp://rue89.feedsportal.com/c/33822/f/608948/s/244eeace/l/0L0Srue890N0Crue890Eplanete0C20A120C10A0C10A0Cle0Edetecteur0Edondes0Eportable0Eutile0Eou0Ejoujou0Elumineux0E235680A/story01.htm
p30
aVhttp://rue89.feedsportal.com/c/33822/f/608948/s/243650f7/l/0Lblogs0Brue890N0Cseries0Etelling0C20A120C10A0C0A70Chomeland0Ele0Eposter0Eboy0Eet0Ela0Ebipolaire0Equi0Emanquaient0Eloriginal0Eisraelien/story01.htm
p31
aVhttp://www.rue89.com/node/236471
p32
aVhttp://rue89.feedsportal.com/c/33822/f/608948/s/245ff864/l/0L0Srue890N0Czapnet0C20A120C10A0C110Cla0Efrance0Evue0Epar0Ela0Etele0Erusse0Ede0Ela0Edrogue0Edes0Emusulmans0Edes0Eetrangers0E23610A9/story01.htm
p33
aVhttp://rue89.feedsportal.com/c/33822/f/608948/s/247eb10e/l/0L0Srue890N0Crue890Eeco0C20A120C10A0C150Cso0Elong0Esucker0Ele0Ejeu0Ediabolique0Einvente0Epar0Ele0Enobel0Edeconomie0E23620A6/story01.htm
p34
aVhttp://rue89.feedsportal.com/c/33822/f/608948/s/245cf3a2/l/0L0Srue890N0Crue890Epolitique0C20A120C10A0C110Cpour0Eou0Econtre0Eles0Eoeuvres0Edart0Esoumises0Elisf0E2360A84/story01.htm
p35
aVhttp://rue89.feedsportal.com/c/33822/f/608948/s/24489dc6/l/0L0Srue890N0C20A120C10A0C0A90Cbete0Esexiste0Emachiste0Ela0Eune0Ede0Elexpress0Evotez0E2360A29/story01.htm
p36
aVhttp://rue89.feedsportal.com/c/33822/f/608948/s/24668c07/l/0L0Srue890N0Czapnet0C20A120C10A0C120Cle0Enobel0Ede0Ela0Epaix0Eattribue0Elue0Ela0Ereaction0Edu0Egeneral0Ede0Egaulle0E236127/story01.htm
p37
aVhttp://rue89.feedsportal.com/c/33822/f/608948/s/247c5f6f/l/0L0Srue890N0Crue890Epolitique0C20A120C10A0C150Ceva0Ejoly0Epourquoi0Eflorence0Elamblin0Edoit0Edemissioner0E236199/story01.htm
p38
aVhttp://rue89.feedsportal.com/c/33822/f/608948/s/2485de16/l/0Lblogs0Brue890N0Cjournalhistoire0C20A120C10A0C130Cen0Eciblant0Elecole0Eprimaire0Evoue0Ela0Erefondation0Elechec0Erelu0Epr0E228660A/story01.htm
p39
aVhttp://rue89.feedsportal.com/c/33822/f/608948/s/24b4f917/l/0L0Srue890N0C20A120C10A0C210Creconquista0Egeneration0Eidentitaire0Esur0Ela0Emosquee0Ede0Epoitiers0E236381/story01.htm
p40
aVhttp://rue89.feedsportal.com/c/33822/f/608948/s/24466d80/l/0L0Srue890N0Crue890Epolitique0C20A120C10A0C0A90Ccarte0Evotre0Eprefet0Et0Eil0Eete0Enomme0Esous0Ehollande0Eou0Esous0Esarkozy0E2360A0A2/story01.htm
p41
aVhttp://rue89.feedsportal.com/c/33822/f/608948/s/24b00b74/l/0L0Srue890N0Crue690C20A120C10A0C20A0Cemma0Eescort0Ecest0Epute0Eet0Ece0Enest0Epas0Efun0E236286/story01.htm
p42
aVhttp://rue89.feedsportal.com/c/33822/f/608948/s/24340d93/l/0L0Srue890N0Crue890Eculture0C20A120C10A0C0A70Ceh0Emec0Eelle0Eest0Eou0Eta0Epremiere0Ecaisse0Ecinq0Erappeurs0Ese0Esouviennent0E235954/story01.htm
p43
aVhttp://rue89.feedsportal.com/c/33822/f/608948/s/2444b10a/l/0L0Srue89lyon0Bfr0C20A120C10A0C0A90Cetudiants0Econtraints0Emodes0Econsommation0Ealternatifs0C/story01.htm
p44
aVhttp://rue89.feedsportal.com/c/33822/f/608948/s/24a932d4/l/0Lblogs0Brue890N0Cna0C20A120C10A0C190Carnaud0Emontebourg0Eprone0Ele0Emade0Efrance0Een0Eune0Edu0Eparisien0Emagazine0E228715/story01.htm
p45
aVhttp://rue89.feedsportal.com/c/33822/f/608948/s/243c13d7/l/0L0Srue890N0C20A120C10A0C0A80Cbienvenue0Edans0Ele0Elycee0Eou0Elon0Edoit0Esigner0Esa0Edemission0Epour0Esinscrire0E235722/story01.htm
p46
aVhttp://rue89.feedsportal.com/c/33822/f/608948/s/244f9231/l/0L0Srue890N0C20A120C10A0C10A0Ccontre0Elislamophobie0Edes0Epains0Eau0Echocolat0Egratuits0E2360A42/story01.htm
p47
aVhttp://rue89.feedsportal.com/c/33822/f/608948/s/24bc9501/l/0L0Srue890N0C20A120C10A0C220Cla0Efrance0Edoit0Elacher0Ele0Epremier0Eministre0Elibanais0Enajib0Emikati0E236413/story01.htm
p48
aVhttp://rue89.feedsportal.com/c/33822/f/608948/s/2454ae02/l/0L0Srue890N0Crue890Eeco0C20A120C10A0C10A0Clouis0Eeboueur0Emarseille0Epour0E10E7370Eeuros0Epar0Emois0E2360A39/story01.htm
p49
aVhttp://rue89.feedsportal.com/c/33822/f/608948/s/245eff8c/l/0L0Srue890N0C20A120C10A0C110Cle0Emauvais0Eregard0Eune0Eaffaire0Ede0Ecodes0E2360A76/story01.htm
p50
aVhttp://rue89.feedsportal.com/c/33822/f/608948/s/246ae88f/l/0L0Srue890N0Crue890Eculture0C20A120C10A0C120Cdenis0Erobert0Etaxer0Elart0Echer0Ecest0Eliberer0Ela0Ecreation0E236146/story01.htm
p51
aVhttp://rue89.feedsportal.com/c/33822/f/608948/s/2434dec4/l/0L0Srue890N0Crue890Epolitique0C20A120C10A0C0A70Clionnel0Eluca0Eles0E20Ejeunes0Edechirolles0Emorts0Ecar0Etrop0Eassimiles0E235960A/story01.htm
p52
aVhttp://rue89.feedsportal.com/c/33822/f/608948/s/243c2414/l/0Lblogs0Brue890N0Cnode2276250C20A120C10A0C0A80Cfrappee0Epar0Ela0Ecrise0Eune0Eville0Eamericaine0Evire0Etous0Eses0Epoliciers0E228572/story01.htm
p53
aVhttp://rue89.feedsportal.com/c/33822/f/608948/s/24b66fb0/l/0L0Srue890N0Crue890Eeco0C20A120C10A0C210Ctva0Ereduite0Eles0Epromesses0Enon0Etenues0Edes0Erestaurateurs0E235435/story01.htm
p54
aVhttp://rue89.feedsportal.com/c/33822/f/608948/s/24ba7089/l/0L0Srue890N0Crue890Eeco0Czapnet0C20A120C10A0C220Chollande0Eimbecile0Ekarl0Elagerfel0Ena0Epas0Epas0Edit0Eca0E236398/story01.htm
p55
aVhttp://rue89.feedsportal.com/c/33822/f/608948/s/24af08e9/l/0L0Srue890N0C20A120C10A0C20A0Ccinq0Equestions0Esur0Elattentat0Ela0Evoiture0Epiegee0Ede0Ebeyrouth0E236371/story01.htm
p56
aVhttp://rue89.feedsportal.com/c/33822/f/608948/s/24b7bc3a/l/0L0Srue890N0Crue890Esport0C20A120C10A0C220Clhistoire0Eromantique0Ede0Emalbranque0Eetoile0Ede0Ela0El10Eapres0Eun0Esans0Efoot0E236395/story01.htm
p57
aVhttp://rue89.feedsportal.com/c/33822/f/608948/s/24b5d71a/l/0L0Srue890N0C20A120C10A0C210Ctawfik0Echamaa0Ela0Emort0Esilencieuse0Emenace0Edes0Emilliers0Ede0Esyriens0E236363/story01.htm
p58
aVhttp://rue89.feedsportal.com/c/33822/f/608948/s/24530906/l/0L0Srue890N0C20A120C10A0C10A0Ctelecoms0Eenergie0Eles0Egeants0Echinois0Eface0Eau0Esoupcon0Esecuritaire0E2360A57/story01.htm
p59
aVhttp://rue89.feedsportal.com/c/33822/f/608948/s/244953f9/l/0L0Srue890N0Crue890Eculture0C20A120C10A0C0A90Cchere0Epatagonie0Eentre0Ewestern0Eet0Equete0Edidentite0Eune0Esublime0Ebd0Evenue/story01.htm
p60
aVhttp://rue89.feedsportal.com/c/33822/f/608948/s/2490a17c/l/0L0Srue89strasbourg0N0Cindex0Bphp0C20A120C10A0C160Csociete0Cune0Ederniere0Egorgee0Ede0Ebiere0Eou0Ecomment0Eles0Ebrasseurs0Ejouent0Eles0Epigeons0C/story01.htm
p61
aVhttp://rue89.feedsportal.com/c/33822/f/608948/s/249aaeb5/l/0L0Srue890N0Crue890Epolitique0C20A120C10A0C180Cle0Edevoir0Edun0Emilitant0Ecest0Edouvrir0Esa0Egueule0E23630A4/story01.htm
p62
aVhttp://rue89.feedsportal.com/c/33822/f/608948/s/247b02fb/l/0Lblogs0Brue890N0Camerique0Edans0Ela0Epeau0C20A120C10A0C150Cle0Ejeu0Edes0Erepublicains0Eeriger0Eobama0Een0Ediviseur0Ede0Elamerique/story01.htm
p63
aVhttp://rue89.feedsportal.com/c/33822/f/608948/s/24944b75/l/0L0Srue890N0Crue690C20A120C10A0C170Ctrop0Eniais0Ele0Emommy0Eporn0Enotre0Eselection0Ede0Elivres0Eerotiques0E236249/story01.htm
p64
aVhttp://rue89.feedsportal.com/c/33822/f/608948/s/24555a97/l/0L0Srue890N0C20A120C10A0C10A0Clemission0Eta0Emere0Een0E6e0Eune0Eenieme0Eplatree0Ede0Etelerealite0E2360A63/story01.htm
p65
aVhttp://rue89.feedsportal.com/c/33822/f/608948/s/2447dbdb/l/0L0Srue890N0Crue890Esport0Czapnet0C20A120C10A0C0A90Clautrichien0Ebaumgartner0Etente0Ede0Efranchir0Ele0Emur0Edu0Eson0Een0Echute0Elibre/story01.htm
p66
aVhttp://rue89.feedsportal.com/c/33822/f/608948/s/2430f60f/l/0L0Srue890N0C20A120C10A0C0A60Clirm0Efonctionnelle0Esalut0Eje0Esuis0Eton0Ecerveau0Eet0Eje0Evais0Etenvoyer0Een0Eprison0E235476/story01.htm
p67
aVhttp://rue89.feedsportal.com/c/33822/f/608948/s/24462af7/l/0L0Srue890N0C20A120C10A0C0A90Cmon0Etelephone0Ephotographie0Eson0Evoleur0Ela0Ebac0Eest0Econtente0E2360A0A9/story01.htm
p68
aVhttp://rue89.feedsportal.com/c/33822/f/608948/s/24668d83/l/0L0Srue890N0Crue890Eeco0C20A120C10A0C120Cla0Efraise0Etagada0Ele0Ebonbon0Edoudou0Equi0Ecartonne0Een0Etemps0Ede0Ecrise0E2360A45/story01.htm
p69
aVhttp://rue89.feedsportal.com/c/33822/f/608948/s/24352bae/l/0L0Srue890N0Crue890Esport0C20A120C10A0C0A70Cet0Eoui0Eetre0Emarseillais0Eet0Esupporter0Edu0Epsg0Ecest0Epossible0E235945/story01.htm
p70
aVhttp://rue89.feedsportal.com/c/33822/f/608948/s/2449e6a8/l/0L0Srue890N0C20A120C10A0C0A90Cgrece0Ela0Echanceliere0Eallemande0Eaccueillie0Eaux0Ecris0Ede0Eheil0Emerkel0E2360A28/story01.htm
p71
aVhttp://rue89.feedsportal.com/c/33822/f/608948/s/24b180ca/l/0L0Srue890N0C20A120C10A0C20A0Cpourquoi0Etwitter0Eaccepte0Ede0Eretirer0Edes0Etweets0Eantisemites0E236378/story01.htm
p72
aVhttp://rue89.feedsportal.com/c/33822/f/608948/s/2470e370/l/0Lblogs0Brue890N0Cdessous0Eassiette0C20A120C10A0C130Cgreenpub0Ela0Epublicite0Equi0Evous0Epoursuit0Equand0Evous0Emangez0E228657/story01.htm
p73
aVhttp://rue89.feedsportal.com/c/33822/f/608948/s/2434022f/l/0L0Srue890N0C20A120C10A0C0A70Cchaos0Een0Esyrie0Edans0Eles0Edeux0Ecamps0Ekidnappe0Epour0Ede0Elargent0E235949/story01.htm
p74
aVhttp://rue89.feedsportal.com/c/33822/f/608948/s/24501a2e/l/0L0Srue890N0C20A120C10A0C10A0Cderives0Escience0Epo0Ela0Edirection0Een0Eappelle0Ela0Efierte0Edes0Eetudiants0E2360A43/story01.htm
p75
aVhttp://rue89.feedsportal.com/c/33822/f/608948/s/243c1c7f/l/0L0Srue890N0C20A120C10A0C0A80Cdiams0Evue0Edarabie0Esaoudite0Ecest0Ela0Efaute0Eaux0Ecatholiques0E235962/story01.htm
p76
aVhttp://rue89.feedsportal.com/c/33822/f/608948/s/248aace1/l/0L0Srue890N0C20A120C10A0C160Cbientot0Ele0Eretour0Edu0Ematricule0Esur0Eles0Euniformes0Ede0Epolice0E236248/story01.htm
p77
aVhttp://rue89.feedsportal.com/c/33822/f/608948/s/246e93ef/l/0L0Srue890N0C20A120C10A0C130Cenfant0Edimmigres0Ene0Een0Efrance0Eje0Eme0Esens0Earabe0E236135/story01.htm
p78
aVhttp://rue89.feedsportal.com/c/33822/f/608948/s/24896654/l/0L0Srue890N0Crue890Eculture0C20A120C10A0C160Cle0Epalais0Ede0Etokyo0Efait0Ela0Emanche0Emais0Eavec0Eclasse0E236244/story01.htm
p79
aVhttp://rue89.feedsportal.com/c/33822/f/608948/s/247f6242/l/0Lblogs0Brue890N0Creligion0C20A120C10A0C150Caumonier0Emusulman0Een0Eprison0Eje0Ene0Esuis0Epas0Eun0Econtroleur0Ede0Econscience0E228669/story01.htm
p80
aVhttp://rue89.feedsportal.com/c/33822/f/608948/s/243e7551/l/0L0Srue890N0Crue890Eculture0C20A120C10A0C0A80Cart0Econtemporain0Ebertille0Ebak0Esi0Ejeune0Edans0Eun0Esi0Egrand0Emusee0E235979/story01.htm
p81
aVhttp://rue89.feedsportal.com/c/33822/f/608948/s/245a02ef/l/0L0Srue890N0C20A120C10A0C110Cconf0Ede0Eredac0E10A0Eheures0Ediscutez0Eavec0Esophie0Everney0Ecaillat0Ede0Erue890Eplanete0E2360A71/story01.htm
p82
aVhttp://rue89.feedsportal.com/c/33822/f/608948/s/246810ed/l/0L0Srue890N0C20A120C10A0C120Cretour0Esur0Ecinq0Eprix0Enobel0Ede0Ela0Epaix0Econtroverses0E236129/story01.htm
p83
aVhttp://rue89.feedsportal.com/c/33822/f/608948/s/24a72410/l/0Lblogs0Brue890N0Cbalagan0C20A120C10A0C190Ctell0Eme0Elies0Ede0Epeter0Ebrook0Ele0Efilm0Eretrouve0Edes0Eannees0Evietnam0E228693/story01.htm
p84
aVhttp://rue89.feedsportal.com/c/33822/f/608948/s/2435ae89/l/0L0Srue890N0C20A120C10A0C0A70Cquest0Ece0Equon0Eattend0Epour0Ereformer0Ela0Etaxe0Edhabitation0E235599/story01.htm
p85
aVhttp://rue89.feedsportal.com/c/33822/f/608948/s/244ec906/l/0L0Srue890N0Czapnet0C20A120C10A0C10A0Cun0Edocumentaire0Esur0Elecoliere0Epakistanaise0Eattaquee0Epar0Eles0Etalibans0E2360A37/story01.htm
p86
aVhttp://rue89.feedsportal.com/c/33822/f/608948/s/245ce290/l/0Lblogs0Brue890N0Cbalagan0C20A120C10A0C110Cque0Eva0Edevenir0Ela0Ehaggadah0Ede0Esarajevo0E22860A7/story01.htm
p87
aVhttp://rue89.feedsportal.com/c/33822/f/608948/s/2474242f/l/0Lblogs0Brue890N0Cles0Ecoulisses0Ede0Ewikipedia0C20A120C10A0C140Clinverse0Edu0Epiratage0Ecest0Ele0Ecopyfraud0Eet0Epersonne0Enen0Eparle/story01.htm
p88
aVhttp://rue89.feedsportal.com/c/33822/f/608948/s/2470b65f/l/0L0Srue890N0Crue890Eculture0C20A120C10A0C130Cphilanthrope0Emais0Epas0Eque0Epourquoi0Elogre0Egoogle0Einvestit0Ela0Eculture0E236163/story01.htm
p89
aVhttp://rue89.feedsportal.com/c/33822/f/608948/s/245d64ea/l/0L0Srue890N0C20A120C10A0C110Cfin0Ede0Elinternet0Eillimite0Eca0Ese0Eprecise0Echez0Eorange0E23610A2/story01.htm
p90
aVhttp://rue89.feedsportal.com/c/33822/f/608948/s/24315246/l/0L0Srue890N0C20A120C10A0C0A60Cje0Eme0Esouviens0Ede0Edirect0E80Een0Ehuit0Evideos0E235925/story01.htm
p91
aVhttp://rue89.feedsportal.com/c/33822/f/608948/s/245ff05d/l/0L0Srue890N0Crue890Eculture0C20A120C10A0C110Cpourquoi0Eles0Eecrivains0Eamericains0Enont0Epresque0Ejamais0Ele0Eprix0Enobel0E2360A92/story01.htm
p92
aVhttp://rue89.feedsportal.com/c/33822/f/608948/s/24bba108/l/0L0Srue890N0C20A120C10A0C220Cle0Epresident0Esud0Eafricain0Erefuse0Ede0Epleurer0Eavec0Eeconomist0E23640A7/story01.htm
p93
aVhttp://rue89.feedsportal.com/c/33822/f/608948/s/2443c663/l/0L0Srue890N0Czapnet0C20A120C10A0C0A90Cfrance0E20Ediffuse0Eun0Eclip0Ede0Erap0Ede0Ejeremie0Elouis0Esidney0E2360A0A1/story01.htm
p94
aVhttp://rue89.feedsportal.com/c/33822/f/608948/s/2439da3d/l/0L0Srue890N0Cnode0C235973/story01.htm
p95
aVhttp://rue89.feedsportal.com/c/33822/f/608948/s/2455a412/l/0L0Srue890N0Crue890Epolitique0C20A120C10A0C10A0Cpour0Eson0Eretour0Esarkozy0Echoisit0Ele0Egoldman0Esachs0Edes0Etropiques0E2360A66/story01.htm
p96
aVhttp://rue89.feedsportal.com/c/33822/f/608948/s/24866924/l/0Lblogs0Brue890N0Cbalagan0C20A120C10A0C160Cvoyage0Edans0Elenfer0Ede0Ela0Ejustice0Erusse0Eavec0Ela0Ejournaliste0Ezoia0Esvetova0E228584/story01.htm
p97
aVhttp://rue89.feedsportal.com/c/33822/f/608948/s/24a0a5ff/l/0L0Srue890N0Crue890Esport0C20A120C10A0C180Cmouilles0Edans0Elaffaire0Earmstrong0Eils0Esont0Etoujours0Ela0Epour0Elongtemps0E236254/story01.htm
p98
aVhttp://rue89.feedsportal.com/c/33822/f/608948/s/2430fa72/l/0L0Srue890N0Crue890Esport0Czapnet0C20A120C10A0C0A60Cles0Evignerons0Ealsaciens0Eont0Ede0Equoi0Een0Evouloir0Eau0Epilote0Ede0Erallye/story01.htm
p99
aVhttp://rue89.feedsportal.com/c/33822/f/608948/s/246e917e/l/0Lblogs0Brue890N0Cdubliners0C20A120C10A0C130Cdans0Eles0Erues0Ede0Edublin0Epeter0Ek0Evictime0Ede0Ela0Ecrise0E228647/story01.htm
p100
aVhttp://rue89.feedsportal.com/c/33822/f/608948/s/243d9bd9/l/0L0Srue890N0C20A120C10A0C0A80Coperation0Eantiterroriste0Equelles0Esont0Eles0Epreuves0Eet0Eautres0Equestions0E235986/story01.htm
p101
aVhttp://rue89.feedsportal.com/c/33822/f/608948/s/2437060d/l/0L0Srue890N0Crue890Esport0C20A120C10A0C0A70Csuivez0Ele0Echoc0Eom0Epsg0Een0Edirect0Emais0Echoisissez0Evotre0Ecamp0E235899/story01.htm
p102
aVhttp://rue89.feedsportal.com/c/33822/f/608948/s/248026db/l/0L0Srue890N0Crue690C20A120C10A0C150Cen0Egrande0Ebretagne0Eles0Ejournalistes0Emecs0Esquattent0Ela0Eune0Eet0Een0Efrance0E236187/story01.htm
p103
aVhttp://rue89.feedsportal.com/c/33822/f/608948/s/24bb9a61/l/0L0Srue890N0Crue890Eculture0C20A120C10A0C220Cfjk0Ela0Ek0Epop0Eson0Eeurovision0Eet0Ela0Efrance0Ey0Esera0E236325/story01.htm
p104
aVhttp://rue89.feedsportal.com/c/33822/f/608948/s/248f0f5c/l/0Lblogs0Brue890N0Camerique0Edans0Ela0Epeau0C20A120C10A0C170Cdebat0Epresidentiel0Eobama0Eretrouve0Eses0Epoings0E228695/story01.htm
p105
aVhttp://rue89.feedsportal.com/c/33822/f/608948/s/24668a82/l/0L0Srue890N0C20A120C10A0C120Cle0Enobel0Ede0Ela0Epaix0Elue0Ela0Ereaction0Edu0Egeneral0Ede0Egaulle0E236126/story01.htm
p106
aVhttp://rue89.feedsportal.com/c/33822/f/608948/s/249c3dbb/l/0L0Srue890N0Crue690C20A120C10A0C180Cmort0Ede0Esylvia0Ekristel0Eracontez0Evos0Esouvenirs0Ed0Eemmanuelle0E236318/story01.htm
p107
aVhttp://rue89.feedsportal.com/c/33822/f/608948/s/2485ea54/l/0L0Srue890N0Crue890Esport0C20A120C10A0C160Cun0Egros0Ematch0Ede0Efoot0Efavorise0Eles0Eviolences0Econjugales0Evraiment0E236220A/story01.htm
p108
aVhttp://rue89.feedsportal.com/c/33822/f/608948/s/2451079e/l/0L0Srue890N0Crue890Eculture0C20A120C10A0C10A0Cde0Egod0Ebless0Eamerica0Eabyss0Elamerique0Edeglinguee0E235959/story01.htm
p109
aVhttp://rue89.feedsportal.com/c/33822/f/608948/s/245c0fab/l/0L0Srue890N0C20A120C10A0C110Crefoulee0Edune0Econference0Ede0Epresse0Epour0Eun0Ejean0Eje0Elenleverai0Ela0Eprochaine0Efois0E2360A94/story01.htm
p110
aVhttp://rue89.feedsportal.com/c/33822/f/608948/s/24bb9ca1/l/0L0Srue890N0C20A120C10A0C220Cfac0Ede0Enanterre0Ene0Epas0Erepondre0Eau0Ejournaliste0Ememe0Esil0Einsiste0E236380A/story01.htm
p111
aVhttp://rue89.feedsportal.com/c/33822/f/608948/s/247f652f/l/0L0Srue890N0C20A120C10A0C150Cle0Eracisme0Eantiblanc0Eexplique0Emes0Epotes0E23610A8/story01.htm
p112
aVhttp://rue89.feedsportal.com/c/33822/f/608948/s/24a276e1/l/0L0Srue890N0C20A120C10A0C180Csale0Etemps0Epour0Elhopital0Epublic0Ela0Emoitie0Edun0Eservice0Ejette0Eleponge0E236338/story01.htm
p113
aVhttp://rue89.feedsportal.com/c/33822/f/608948/s/249f95a7/l/0L0Srue890N0C20A120C10A0C180Cmanifestation0Ebouddhiste0Econtre0Edes0Eviolences0Eau0Ebangladesh0Eet0Epour0Eun0Eerratum0Edu0Emonde/story01.htm
p114
aVhttp://rue89.feedsportal.com/c/33822/f/608948/s/243b1730/l/0L0Srue890N0C20A120C10A0C0A80Cpourquoi0Eles0Emedias0Ene0Edevraient0Epas0Emordre0Ele0Epain0Eau0Echocolat0Ede0Ecope0E235976/story01.htm
p115
aVhttp://rue89.feedsportal.com/c/33822/f/608948/s/247596da/l/0L0Srue890N0Crue890Eculture0C20A120C10A0C140Crencontre0Eavec0Eflynt0Elartiste0Eartisan0Edu0Erap0Efrancais0E235997/story01.htm
p116
aVhttp://rue89.feedsportal.com/c/33822/f/608948/s/24668d7f/l/0L0Srue890N0C20A120C10A0C120Cunion0Eeuropeenne0Eun0Eparadoxal0Eprix0Enobel0Ede0Ela0Epaix0E236128/story01.htm
p117
aVhttp://rue89.feedsportal.com/c/33822/f/608948/s/245ff62a/l/0L0Srue890N0C20A120C10A0C110Chomoparentalite0Em0Ehollande0Ema0Efille0Emoins0Ede0Edroits0Eque0Evos0Eenfants0Eexpliquez0Elui/story01.htm
p118
aVhttp://rue89.feedsportal.com/c/33822/f/608948/s/247a6eff/l/0L0Srue890N0Czapnet0C20A120C10A0C150Cretrouvez0Enorodom0Esihanouk0Eroi0Estar0Edu0Ecambodge0Edans0Ele0Ecrepuscule0E236186/story01.htm
p119
aVhttp://rue89.feedsportal.com/c/33822/f/608948/s/24403cd3/l/0L0Srue890N0Crue890Eeco0C20A120C10A0C0A80Cdire0Eque0Eje0Esuis0Ehomo0Eau0Eboulot0Ecest0Erisque0Evoila0Epourquoi0E235964/story01.htm
p120
aVhttp://rue89.feedsportal.com/c/33822/f/608948/s/24466ae5/l/0L0Srue890N0Crue890Eeco0C20A120C10A0C0A90Cun0Ejeune0Esur0Ecinq0Esans0Ediplome0Ece0Enest0Epas0Eune0Efatalite0E2360A11/story01.htm
p121
aVhttp://rue89.feedsportal.com/c/33822/f/608948/s/24aab96d/l/0L0Srue890N0Crue890Epolitique0C20A120C10A0C190Coubliez0Eles0Egauchistes0Ela0Ecause0Edu0Epeuple0Ecest0Epatrick0Ebuisson0E236354/story01.htm
p122
aVhttp://rue89.feedsportal.com/c/33822/f/608948/s/24740773/l/0L0Srue89strasbourg0N0Cindex0Bphp0C20A120C10A0C140Cblogs0Cmanger0E10A0A0Ebio0Ependant0Eune0Esemaine0Ecest0Epossible0Eavec0E10Ae0Epar0Ejour0C/story01.htm
p123
aVhttp://rue89.feedsportal.com/c/33822/f/608948/s/2452fdc1/l/0Lblogs0Brue890N0Cbaudry0C20A120C10A0C10A0Cdsk0Eveut0Ela0Epaix0E228630A/story01.htm
p124
aVhttp://rue89.feedsportal.com/c/33822/f/608948/s/247bf050/l/0L0Srue890N0C20A120C10A0C150Cil0Eny0Epas0Eque0Eles0Eprofs0Equi0Esouffrent0Edans0Eleducation0Enationale0E23590A1/story01.htm
p125
aVhttp://rue89.feedsportal.com/c/33822/f/608948/s/24a4f033/l/0L0Srue890N0C20A120C10A0C190Cun0Emanifeste0Epour0Erepenser0Ele0Esecteur0Ede0Ela0Epresse0E236335/story01.htm
p126
aVhttp://rue89.feedsportal.com/c/33822/f/608948/s/24698505/l/0L0Srue890N0Crue890Eculture0C20A120C10A0C120Ccinema0Efaites0Evous0Eun0Eweek0Eend0Eskinheads0E2360A49/story01.htm
p127
aVhttp://rue89.feedsportal.com/c/33822/f/608948/s/24a09987/l/0L0Srue890N0Crue890Eculture0C20A120C10A0C180Cla0Epirogue0Ele0Efilm0Edune0Ejeunesse0Eafricaine0Eboat0Epeople0E236336/story01.htm
p128
aVhttp://rue89.feedsportal.com/c/33822/f/608948/s/249abca8/l/0L0Srue890N0C20A120C10A0C180Cconference0Ede0Eredac0E10A0Eheures0Ediscutez0Eavec0Efrancois0Ekrug0Ejournaliste0Epolitique0E236287/story01.htm
p129
aVhttp://rue89.feedsportal.com/c/33822/f/608948/s/242f5a23/l/0L0Srue890N0Crue890Epolitique0C20A120C10A0C0A60Cpain0Eau0Echocolat0Enouvelle0Eprovocation0Ede0Ejean0Efrancois0Ecope0Etournee0Een/story01.htm
p130
aVhttp://rue89.feedsportal.com/c/33822/f/608948/s/24337df8/l/0L0Srue890N0Crue890Esport0C20A120C10A0C0A70Cavant0Eom0Epsg0Edecouvrez0Emarco0Everratti0Ele0Ecrack0Einattendu0Ede0Eparis0E235932/story01.htm
p131
aVhttp://rue89.feedsportal.com/c/33822/f/608948/s/2448995c/l/0L0Srue890N0Czapnet0C20A120C10A0C0A90Cun0Eboeing0Equi0Esecrase0Evu0Ede0Elinterieur0Eca0Eressemble0Eca0E2360A22/story01.htm
p132
aVhttp://rue89.feedsportal.com/c/33822/f/608948/s/24594165/l/0L0Srue890N0Crue890Epolitique0C20A120C10A0C110Cincroyable0Eles0Esocialistes0Eont0Edes0Eidees0Eenfin0Ecertains0E2360A59/story01.htm
p133
aVhttp://rue89.feedsportal.com/c/33822/f/608948/s/249c3a7e/l/0L0Srue890N0Crue890Epolitique0C20A120C10A0C180Cmontebourg0Een0Emariniere0Emade0Efrance0Eevidemment0E236316/story01.htm
p134
aVhttp://rue89.feedsportal.com/c/33822/f/608948/s/24b124b2/l/0Lblogs0Brue890N0Camericanmiroir0C20A120C10A0C20A0Cdans0Eles0Efoires0Eamericaines0Ekebab0Ede0Erequin0Ecreme0Eglacee0Efrite0Eet0Eoignon/story01.htm
p135
aVhttp://rue89.feedsportal.com/c/33822/f/608948/s/249d6065/l/0L0Srue89lyon0Bfr0C20A120C10A0C180Csecurite0Esociale0Eveut0Eetrangler0Esite0Ecomparateur0Edes0Etarifs0Emedecins0C/story01.htm
p136
aVhttp://rue89.feedsportal.com/c/33822/f/608948/s/2494fdca/l/0L0Srue890N0Cnode0C236293/story01.htm
p137
aVhttp://rue89.feedsportal.com/c/33822/f/608948/s/24a6136c/l/0L0Srue890N0C20A120C10A0C190Cparisot0Eet0Ele0Ecadre0Edorange0E236346/story01.htm
p138
aVhttp://rue89.feedsportal.com/c/33822/f/608948/s/248bafd8/l/0L0Srue890N0Crue890Esport0C20A120C10A0C160Cfoot0Esuivez0Eespagne0Efrance0Een0Edirect0Emais0Echoisissez0Evotre0Ecamp0E236253/story01.htm
p139
aVhttp://rue89.feedsportal.com/c/33822/f/608948/s/2492a40f/l/0L0Srue890N0Crue890Eplanete0C20A120C10A0C170Cligne0Etres0Ehaute0Etension0Ecotentin0Emaine0Eviolence0Edetat0Econtre0Evigilance/story01.htm
p140
aVhttp://rue89.feedsportal.com/c/33822/f/608948/s/245eff8b/l/0L0Srue890N0Crue890Esport0C20A120C10A0C110Capnee0Efaut0Eil0Eaimer0Ela0Emort0Epour0Erester0Esous0Eleau0Esans0Erespirer0E235681/story01.htm
p141
aVhttp://rue89.feedsportal.com/c/33822/f/608948/s/24668d7f/l/0L0Srue890N0C20A120C10A0C120Cparadoxal0Eprix0Enobel0Ede0Ela0Epaix0E236128/story01.htm
p142
aVhttp://rue89.feedsportal.com/c/33822/f/608948/s/249453f9/l/0L0Srue890N0C20A120C10A0C170Cune0Ehistoire0Ede0Edroit0Edu0Etravail0Equi0Etombe0Emal0Epour0Eun0Eavocat0Eparisien0E23620A8/story01.htm
p143
aVhttp://rue89.feedsportal.com/c/33822/f/608948/s/24952d64/l/0L0Srue890N0Crue890Epolitique0C20A120C10A0C170Cnadine0Emorano0Ecree0Eson0Eparti0Epour0Ele0Epeuple0Ede0Efrance0E236296/story01.htm
p144
aVhttp://rue89.feedsportal.com/c/33822/f/608948/s/249c224c/l/0L0Srue890N0C20A120C10A0C180C170Eoctobre0E19610Ealger0Esatisfait0Emais0Eattend0Eplus0Ede0Efrancois0Ehollande0E236310A/story01.htm
p145
aVhttp://rue89.feedsportal.com/c/33822/f/608948/s/2433fe6c/l/0L0Srue890N0Cnode0C235952/story01.htm
p146
aVhttp://rue89.feedsportal.com/c/33822/f/608948/s/247a7985/l/0L0Srue890N0C20A120C10A0C150Ccannabis0Eles0Epour0Eles0Econtre0Eet0Eles0Eautres0E236188/story01.htm
p147
aVhttp://rue89.feedsportal.com/c/33822/f/608948/s/2447642c/l/0L0Srue890N0Crue890Eculture0C20A120C10A0C0A90Credecouvrir0Edambudzo0Emarechera0Elecrivain0Emaudit0Edu0Ezimbabwe0E2360A19/story01.htm
p148
aVhttp://rue89.feedsportal.com/c/33822/f/608948/s/245b15f9/l/0L0Srue890N0Czapnet0C20A120C10A0C110Cchristophe0Ebarbier0Emalmene0Esur0Earte0Epour0Esa0Ecouv0Emisogyne0E2360A88/story01.htm
p149
aVhttp://rue89.feedsportal.com/c/33822/f/608948/s/24a98c1a/l/0L0Srue890N0C20A120C10A0C190Cetre0Egrec0Een0Eallemagne0Epas0Elenfer0Emais0Ede0Eplus0Een0Eplus0Eamer0E236180A/story01.htm
p150
aVhttp://rue89.feedsportal.com/c/33822/f/608948/s/247791e6/l/0L0Srue890N0Crue890Esport0Czapnet0C20A120C10A0C140Crevivez0Ele0Esaut0Edu0Epremier0Ehomme0Eavoir0Efranchi0Ele0Emur0Edu0Eson0E236182/story01.htm
p151
aVhttp://rue89.feedsportal.com/c/33822/f/608948/s/245925ec/l/0L0Srue890N0Cnode0C2360A80A/story01.htm
p152
aVhttp://rue89.feedsportal.com/c/33822/f/608948/s/24be7af0/l/0L0Srue890N0Crue890Esport0C20A120C10A0C220Cluci0Eefface0Earmstrong0Epour0Ele0Ereste0Eroulez0Ejeunesse0E236422/story01.htm
p153
aVhttp://rue89.feedsportal.com/c/33822/f/608948/s/24515c65/l/0L0Srue890N0C20A120C10A0C10A0Cnouvelle0Eversion0Ede0Erue890Eavec0Eles0Edoigts0Ecompatible0Ei0As60Esur0Eipad0E2360A48/story01.htm
p154
aVhttp://rue89.feedsportal.com/c/33822/f/608948/s/242f0577/l/0L0Srue890N0C20A120C10A0C0A60Cun0Ehomme0Eabattu0Estrasbourg0Eun0Epolicier0Eraconte0Eloperation0Eantiterroriste0E235942/story01.htm
p155
aVhttp://rue89.feedsportal.com/c/33822/f/608948/s/247bfcbd/l/0L0Srue890N0Czapnet0C20A120C10A0C150Cdati0Ederape0E236191/story01.htm
p156
aVhttp://rue89.feedsportal.com/c/33822/f/608948/s/24477004/l/0L0Srue890N0Crue890Eeco0C20A120C10A0C0A90Csanofi0Esupprime0Edes0Eemplois0Emais0Elance0Eune0Eboisson0Eavec0Ecoca0Ecola0E2360A17/story01.htm
p157
aVhttp://rue89.feedsportal.com/c/33822/f/608948/s/24517819/l/0L0Srue890N0C20A120C10A0C10A0Cpetit0Edrame0Elhotel0Elutetia0Eles0Edeportes0Ejuifs0Eveulent0Edes0Eexcuses0E2360A32/story01.htm
p158
aVhttp://rue89.feedsportal.com/c/33822/f/608948/s/249f9aba/l/0L0Srue890N0C20A120C10A0C180Cguerre0Edes0Echiffres0Ecombien0Ede0Emorts0Ele0E170Eoctobre0E19610E236329/story01.htm
p159
aVhttp://rue89.feedsportal.com/c/33822/f/608948/s/24bc94a7/l/0L0Srue890N0Cnode0C236412/story01.htm
p160
aVhttp://rue89.feedsportal.com/c/33822/f/608948/s/2469331c/l/0L0Srue890N0Crue890Esport0C20A120C10A0C120Csolidaire0Eun0Efootballeur0Eespagnol0Erefuse0Ede0Etoucher0Ele0Echomage0E236142/story01.htm
p161
aVhttp://rue89.feedsportal.com/c/33822/f/608948/s/246e6d25/l/0L0Srue890N0C20A120C10A0C130Cfrancophonie0Ele0Esommet0Ede0Elimpuissance0Ekinshasa0E236110A/story01.htm
p162
aVhttp://rue89.feedsportal.com/c/33822/f/608948/s/2470b1b6/l/0Lblogs0Brue890N0Cno0Ewine0Einnocent0C20A120C10A0C130Cle0Evin0Eet0Epas0Eseulement0Ele0Echampagne0Eest0Eil0Ele0Emeilleur0Eami0Edu0Esexe/story01.htm
p163
aVhttp://rue89.feedsportal.com/c/33822/f/608948/s/249d59c2/l/0L0Srue890N0Crue890Epolitique0C20A120C10A0C180Crisques0Ede0Efraudes0Eau0Eps0Eune0Efede0Eet0Etrois0Esections0Esous0Esurveillance/story01.htm
p164
aVhttp://rue89.feedsportal.com/c/33822/f/608948/s/245b1ee7/l/0L0Srue890N0C20A120C10A0C110Cje0Efais0Epartie0Edes0E90A0Edenfants0Edimmigres0Equi0Ese0Esentent0Efrancais0Emais0E2360A60A/story01.htm
p165
aVhttp://rue89.feedsportal.com/c/33822/f/608948/s/2486bccd/l/0L0Srue890N0Crue890Eeco0C20A120C10A0C160Cjulien0E250Eans0Elibraire0Een0Ehypermarche0Epour0E12230Eeuros0Epar0Emois0E236149/story01.htm
p166
aVhttp://rue89.feedsportal.com/c/33822/f/608948/s/24888fb6/l/0L0Srue890N0Crue890Esport0C20A120C10A0C160Cpourquoi0Ece0Enest0Epas0Egrave0Eque0Eles0Ebleus0Eperdent0Econtre0Elespagne0E236233/story01.htm
p167
aVhttp://rue89.feedsportal.com/c/33822/f/608948/s/24348f30/l/0L0Srue890N0C20A120C10A0C0A70Cchine0Ecanton0Ela0Eresistance0Esans0Eespoir0Edes0Ehabitants0Eexpulses0E235933/story01.htm
p168
aVhttp://rue89.feedsportal.com/c/33822/f/608948/s/245d63d6/l/0L0Srue890N0Cnode0C23610A3/story01.htm
p169
aVhttp://rue89.feedsportal.com/c/33822/f/608948/s/2489697b/l/0L0Srue890N0C20A120C10A0C160Ccarte0Ehabitez0Evous0Edans0Eun0Edesert0Emedical0E236238/story01.htm
p170
aVhttp://rue89.feedsportal.com/c/33822/f/608948/s/245a08aa/l/0L0Srue890N0C20A120C10A0C110Cle0Eplateau0Ede0Edenisot0Eyalta0Edu0Ebuzz0E2360A87/story01.htm
p171
aVhttp://rue89.feedsportal.com/c/33822/f/608948/s/24b77a2a/l/0L0Srue890N0C20A120C10A0C210Cles0Eislandais0Eapprouvent0Ele0Eprojet0Ecitoyen0Ede0Enouvelle0Econstitution0E236383/story01.htm
p172
aVhttp://rue89.feedsportal.com/c/33822/f/608948/s/24952f82/l/0L0Srue890N0C20A120C10A0C170Crevolution0Elimprimante0E3d0Ela0Emachine0Evapeur0Edu0Exxie0Esiecle0E236194/story01.htm
p173
aVhttp://rue89.feedsportal.com/c/33822/f/608948/s/245a8100/l/0L0Srue890N0C20A120C10A0C110Cpeine0Ede0Emort0Eje0Ene0Evoulais0Epas0Eetre0Edans0Ela0Epeau0Edun0Etueur0E2360A89/story01.htm
p174
aVhttp://rue89.feedsportal.com/c/33822/f/608948/s/2437c09a/l/0L0Srue890N0Crue890Eculture0Czapnet0C20A120C10A0C0A70Cune0Evie0Ede0Emoins0Ezebda0Eet0Ejean0Epierre0Efiliu0Echante0Epour0Egaza0E235965/story01.htm
p175
aVhttp://rue89.feedsportal.com/c/33822/f/608948/s/249c2b0c/l/0L0Srue890N0Crue890Eeco0C20A120C10A0C180Cles0Evoitures0Ejaunes0Econcurrence0Efrontale0Eaux0Etaxis0Eparis0E236250A/story01.htm
p176
aVhttp://rue89.feedsportal.com/c/33822/f/608948/s/247d051e/l/0L0Srue890N0C20A120C10A0C150Ctrafic0Eblanchiment0Eevasion0Efiscale0Eque0Esait0Eau0Ejuste0Ede0Elaffaire0Elamblin0E236193/story01.htm
p177
aVhttp://rue89.feedsportal.com/c/33822/f/608948/s/249051a0/l/0L0Srue890N0C20A120C10A0C170Cla0Epolice0Eaux0Eoeufs0Edor0E236265/story01.htm
p178
aVhttp://rue89.feedsportal.com/c/33822/f/608948/s/248aaff7/l/0L0Srue890N0Crue890Epolitique0C20A120C10A0C160Cmoi0Efumeur0Eet0Eacheteur0Ede0Ecannabis0Ebien0Eplace0Epour0Evous0Een0Eparler0E236229/story01.htm
p179
aVhttp://rue89.feedsportal.com/c/33822/f/608948/s/24758bf4/l/0L0Srue890N0Crue690C20A120C10A0C140Cau0Etheatre0Esucoir0Edu0Eporno0Epedago0Ecomme0Esi0Evous0Ey0Eetiez0E2360A52/story01.htm
p180
aVhttp://rue89.feedsportal.com/c/33822/f/608948/s/244fd40b/l/0L0Srue890N0Crue690C20A120C10A0C10A0Crobots0Eprostitues0Ecoit0Edistance0Equoi0Eressemblera0Ele0Esexe0Edu0Efutur0E235890A/story01.htm
p181
aVhttp://rue89.feedsportal.com/c/33822/f/608948/s/24450900/l/0L0Srue890N0C20A120C10A0C0A90Clunettes0Ede0Epulvar0E20A0E0A0A0A0Eeuros0Ede0Ebachelot0Eplus0Ele0Etemps0Ede0Esindigner0E2360A0A4/story01.htm
p182
aVhttp://rue89.feedsportal.com/c/33822/f/608948/s/246f1b7b/l/0L0Srue890N0C20A120C10A0C130Cmon0Eenquete0Esurprises0Esur0Eles0Ejeunes0Eboches0Efusillees0Edu0Epoitou0E2360A51/story01.htm
p183
aVhttp://rue89.feedsportal.com/c/33822/f/608948/s/24859abf/l/0Lblogs0Brue890N0Cvivelapub0C20A120C10A0C160Cquand0Ela0Epub0Eutilise0Ela0Ecensure0Epour0Efaire0Edu0Ebuzz0E228645/story01.htm
p184
aVhttp://rue89.feedsportal.com/c/33822/f/608948/s/2439d5a6/l/0L0Srue890N0C20A120C0A90C180Cles0Esalafistes0Een0Efrance0Eun0Eprobleme0Esocial0Epas0Ereligieux0E23540A2/story01.htm
p185
aVhttp://rue89.feedsportal.com/c/33822/f/608948/s/2435ab1c/l/0Lblogs0Brue890N0Cwieviorka0C20A120C10A0C0A60Ccirconcision0Eet0Ehalal0Eles0Ehabits0Euniversalistes0Ede0Elintolerance0Eet0Edu/story01.htm
p186
aVhttp://rue89.feedsportal.com/c/33822/f/608948/s/24b66980/l/0L0Srue890N0C20A120C10A0C210Cbeyrouth0Esous0Ehaute0Etension0Eapres0Eles0Efunerailles0Edu0Egeneral0Eassassine0E236390A/story01.htm
p187
aVhttp://rue89.feedsportal.com/c/33822/f/608948/s/2492a40a/l/0L0Srue890N0C20A120C10A0C170Cmeme0Elhopital0Eveut0Emettre0Eles0Esdf0Edehors0E236268/story01.htm
p188
aVhttp://rue89.feedsportal.com/c/33822/f/608948/s/248a7304/l/0L0Srue890N0Crue890Epolitique0C20A120C10A0C160Cla0Efacture0Eet0Elimprimeur0Edegats0Een0Eserie0Eapres0Ela0Edefaite0Ede0Ebayrou/story01.htm
p189
aVhttp://rue89.feedsportal.com/c/33822/f/608948/s/24944ddd/l/0Lblogs0Brue890N0Cnode0C228350A0C20A120C10A0C170Cespagne0Efrance0Ele0Eretour0Edu0Eromantisme0Eface0Eau0Efootball0Epetit0Ebourgeois/story01.htm
p190
aVhttp://rue89.feedsportal.com/c/33822/f/608948/s/247e479b/l/0L0Srue890N0Crue890Esport0C20A120C10A0C150Cde0Ela0Eboxe0Emelee0Eaux0Eechecs0Eet0Eautres0Enos0E50Esports0Edebiles0Epreferes0E236132/story01.htm
p191
aVhttp://rue89.feedsportal.com/c/33822/f/608948/s/24bfb5a6/l/0L0Srue890N0Crue890Epolitique0C20A120C10A0C220Carnaud0Emontebourg0Evs0Epascal0Elamy0Evous0Eavez0Edit0Eprotectionnisme0E236417/story01.htm
p192
aVhttp://rue89.feedsportal.com/c/33822/f/608948/s/24740772/l/0L0Srue890N0C20A120C10A0C140Cils0Eimaginent0Eun0Emariage0Eblanc0Eentre0Efrancais0Eou0Equoi0E23610A4/story01.htm
p193
aVhttp://rue89.feedsportal.com/c/33822/f/608948/s/244f9384/l/0L0Srue890N0Crue890Esport0C20A120C10A0C10A0Ccontinuons0Eaimer0Ele0Efoot0Eitalien0Ecar0Ecest0Edu0Ecinema0Enotre0Ecasting0E2360A31/story01.htm
p194
aVhttp://rue89.feedsportal.com/c/33822/f/608948/s/247389cd/l/0L0Srue890N0C20A120C10A0C140Cquest0Ece0Equun0Eetranger0Ereponse0Edans0Eun0Evillage0Edes0Ealpes0E2360A14/story01.htm
p195
aVhttp://rue89.feedsportal.com/c/33822/f/608948/s/24305ccd/l/0Lblogs0Brue890N0Cdroles0Ede0Egammes0C20A120C10A0C0A60Cboris0Eberezovsky0Ele0Epiano0Epour0Eforteresse0E22860A0A/story01.htm
p196
aVhttp://rue89.feedsportal.com/c/33822/f/608948/s/24a4f7bf/l/0L0Srue890N0Czapnet0C20A120C10A0C180Cun0Ecadre0Equi0Egagne0E70A0E0A0A0A0Eeuros0Eordonne0Eune0Eagente0Esncf0Ede0Efermer0Esa0Egueule0E236319/story01.htm
p197
aVhttp://rue89.feedsportal.com/c/33822/f/608948/s/24555a98/l/0L0Srue890N0Czapnet0C20A120C10A0C10A0Chypocrite0Ela0Epremiere0Eministre0Eaustralienne0Edenonce0Ele0Esexisme0Ede0Eson0Eopposant/story01.htm
p198
aVhttp://rue89.feedsportal.com/c/33822/f/608948/s/24b663b1/l/0Lblogs0Brue890N0Clundismatin0C20A120C0A90C230Csamir0Etaxi0Ede0Enuit0E228485/story01.htm
p199
aVhttp://rue89.feedsportal.com/c/33822/f/608948/s/243b772e/l/0Lblogs0Brue890N0Clundismatin0C20A120C10A0C0A80Csarah0Epharmacienne0Enous0Esommes0Eceux0Eauxquels0Eles0Egens0Ese0Econfient0Ele0Eplus/story01.htm
p200
aVhttp://rue89.feedsportal.com/c/33822/f/608948/s/24bc9010/l/0L0Srue890N0Crue690C20A120C10A0C220Clinventeur0Ede0Egrindr0Eappli0Egay0Ele0Epouvoir0Eest0Edans0Ele0Enombre0E23640A4/story01.htm
p201
aVhttp://rue89.feedsportal.com/c/33822/f/608948/s/2465e3f3/l/0L0Srue890N0C20A120C10A0C120Cfinance0Etrois0Escoops0Equi0Ene0Eferont0Epas0Ela0Eune0Edes0Ejournaux0E236121/story01.htm
p202
aVhttp://rue89.feedsportal.com/c/33822/f/608948/s/24b48575/l/0L0Srue890N0C20A120C10A0C210Cmoi0Efumeur0Eet0Eacheteur0Ede0Ecannabis0Epas0Einteresse0Epar0Ela0Edepenalisation0E23630A0A/story01.htm
p203
aVhttp://rue89.feedsportal.com/c/33822/f/608948/s/24bc9360/l/0Lblogs0Brue890N0Csylvain0Egouz0C20A120C10A0C220Chollande0Enous0Edesintoxique0Ede0Esarkozy0Eil0Ene0Efaut0Epas0Esen0Eplaindre0E228732/story01.htm
p204
aVhttp://rue89.feedsportal.com/c/33822/f/608948/s/247613c3/l/0L0Srue890N0C20A120C10A0C140Cdu0Epacs0Eau0Emariage0Egay0Ela0Erecherche0Ede0Ela0Ebible0Ede0Eboutin0E236177/story01.htm
p205
aVhttp://rue89.feedsportal.com/c/33822/f/608948/s/24537f0d/l/0L0Srue890N0C20A120C10A0C10A0Ccomment0Eles0Efrancais0Eont0Erecemment0Eappris0Evivre0Eavec0Ela0Epolice0E2360A26/story01.htm
p206
aVhttp://rue89.feedsportal.com/c/33822/f/608948/s/24a78851/l/0L0Srue890N0Cnode0C236351/story01.htm
p207
aVhttp://rue89.feedsportal.com/c/33822/f/608948/s/24bfb0da/l/0Lblogs0Brue890N0Cchez0Emarie0Emastulu0C20A120C10A0C220Clamour0Eest0Edeclare0Eoui0Eil0Eose0Ele0Etalent0Eflou0Ede0Enicolas0Erey0E228739/story01.htm
p208
aVhttp://rue89.feedsportal.com/c/33822/f/608948/s/242f5a27/l/0L0Srue890N0C20A120C10A0C0A60Clalgorithme0Ede0Egoogle0Esur0Erue890Eet0Edans0Eplace0Ede0Ela0Etoile0Esur0Efrance0Eculture0E235934/story01.htm
p209
aVhttp://rue89.feedsportal.com/c/33822/f/608948/s/24a09983/l/0L0Srue890N0Crue890Eculture0C20A120C10A0C180Cle0Ecnrs0Epignouf0Equi0Epille0Eles0Echercheurs0E236285/story01.htm
p210
aVhttp://rue89.feedsportal.com/c/33822/f/608948/s/245cea22/l/0L0Srue890N0Crue890Esport0C20A120C10A0C110Csans0Epapiers0Ele0Ecoach0Edes0Ebleus0Esuit0Ele0Emondial0Edes0Esdf0Esur0Eyoutube0E2360A93/story01.htm
p211
aVhttp://rue89.feedsportal.com/c/33822/f/608948/s/2499d050/l/0Lblogs0Brue890N0Cderriere0Ele0Ebarreau0C20A120C10A0C180Ctournantes0Ede0Efontenay0Egrosse0Evache0Etu0Ecrois0Eque0Eje0Etai0Eviolee0E228682/story01.htm
p212
aVhttp://rue89.feedsportal.com/c/33822/f/608948/s/2470a79a/l/0L0Srue890N0Crue890Eculture0C20A120C10A0C130Creponse0Edenis0Erobert0Etaxer0Ela0Epossession0Edoeuvres0Edart0Eest0Einjuste0E236162/story01.htm
p213
aVhttp://rue89.feedsportal.com/c/33822/f/608948/s/24a781a5/l/0L0Srue890N0C20A120C10A0C190Crefus0Ede0Ela0Enationalite0Efrancaise0Ecomment0Eca0Emarche0E236345/story01.htm
p214
aVhttp://rue89.feedsportal.com/c/33822/f/608948/s/24a08dc7/l/0L0Srue890N0C20A120C10A0C180Cnewsweek0Eabandonne0Ele0Epapier0Eet0Epasse0Eau0Etout0Enumerique0E236333/story01.htm
p215
aVhttp://rue89.feedsportal.com/c/33822/f/608948/s/24bece26/l/0L0Srue890N0C20A120C10A0C220Cdepassements0Edhonoraires0Eles0Evrais0Epigeons0Eseront0Eles0Epatients0E236414/story01.htm
p216
aVhttp://rue89.feedsportal.com/c/33822/f/608948/s/249b3165/l/0L0Srue890N0C20A120C10A0C180C170Eoctobre0E610Ela0Emecanique0Edu0Esilence0E23630A9/story01.htm
p217
aVhttp://rue89.feedsportal.com/c/33822/f/608948/s/24b4fd95/l/0L0Srue890N0Crue890Esport0C20A120C10A0C210Cpourquoi0Eles0Efilles0Esont0Edingues0Edu0Eroller0Ederby0E235999/story01.htm
p218
aVhttp://rue89.feedsportal.com/c/33822/f/608948/s/249d9998/l/0L0Srue890N0Crue890Esport0C20A120C10A0C180Cdopage0Eaide0Ejuridique0Eet0Econseils0Efiscaux0Ele0Epackage0Edu0Edocteur0Eferrari/story01.htm
p219
aVhttp://rue89.feedsportal.com/c/33822/f/608948/s/245b92f5/l/0L0Srue890N0C20A120C10A0C110Cmo0Eyan0Eprix0Enobel0Ede0Elitterature0Ele0Erealisme0Emagique0Ela0Echinoise0E23610A0A/story01.htm
p220
aVhttp://rue89.feedsportal.com/c/33822/f/608948/s/246e8ae8/l/0Lblogs0Brue890N0Cchemin0Edu0Enord0C20A120C10A0C130Cen0Enorvege0Ele0Enobel0Ede0Ela0Epaix0Eattribue0Elue0Efait0Escandale0E228649/story01.htm
p221
aVhttp://rue89.feedsportal.com/c/33822/f/608948/s/2490ada4/l/0L0Srue890N0C20A120C10A0C170Cinstit0Estagiaire0Elicenciee0Eje0Ene0Eme0Esuis0Epas0Etrompee0Ede0Emetier0E236217/story01.htm
p222
aVhttp://rue89.feedsportal.com/c/33822/f/608948/s/24a724bb/l/0L0Srue890N0C20A120C10A0C190Cles0Ejuifs0Ede0Efrance0Ede0Ecommunaute0Emon0Eamour0Eau0Ecommunautarisme0E236214/story01.htm
p223
aVhttp://rue89.feedsportal.com/c/33822/f/608948/s/24b5dcbb/l/0Lblogs0Brue890N0Cde0Einteret0Econflit0C20A120C10A0C210Cogm0Eles0Eacademies0Escientifiques0Edesavouent0Ele0Eprofesseur0Eseralini/story01.htm
p224
aVhttp://rue89.feedsportal.com/c/33822/f/608948/s/246b0349/l/0L0Srue890N0C20A120C10A0C120Chollande0Esur0Eles0Epas0Ede0Esarkozy0Ele0Ediscours0Ede0Edakar0Edes0Eafricains0E236151/story01.htm
p225
aVhttp://rue89.feedsportal.com/c/33822/f/608948/s/247374ae/l/0Lblogs0Brue890N0Cvivelapub0C20A120C10A0C140Cpub0Eet0Ecensure0Eretouches0Eet0Ecoups0Ede0Efeutre0Edans0Eles0Epays0Epuritains0E228612/story01.htm
p226
aVhttp://rue89.feedsportal.com/c/33822/f/608948/s/244012c5/l/0L0Srue890N0Crue890Eeco0C20A120C10A0C0A80Cvictoire0Edes0Epigeons0Ele0Elobbying0Edu0Esecret0Eest0Een0Ebout0Ede0Ecourse0E235975/story01.htm
p227
aVhttp://rue89.feedsportal.com/c/33822/f/608948/s/2433e002/l/0Lblogs0Brue890N0Camerique0Edans0Ela0Epeau0C20A120C10A0C0A70Cetats0Eunis0Emitt0Eromney0Epresident0Esouriez0Evous0Eetes0Evires0E22860A6/story01.htm
p228
aVhttp://rue89.feedsportal.com/c/33822/f/608948/s/24b0b10e/l/0L0Srue890N0C20A120C10A0C20A0Ckarine0Eprof0Ebouche0Etrou0Een0Ecdd0Eet0Etoujours0Epas0Epayee0E236339/story01.htm
p229
aVhttp://rue89.feedsportal.com/c/33822/f/608948/s/24858cfe/l/0L0Srue890N0C20A120C10A0C160Cdesesperer0Ejenlain0E236221/story01.htm
p230
aVhttp://rue89.feedsportal.com/c/33822/f/608948/s/2499c26e/l/0L0Srue890N0Cnode0C23630A6/story01.htm
p231
atRp232
.