c__builtin__
set
p1
((lp2
Vhttp://rue89.feedsportal.com/c/33822/f/608948/s/243c13d7/l/0L0Srue890N0C20A120C10A0C0A80Cbienvenue0Edans0Ele0Elycee0Eou0Elon0Edoit0Esigner0Esa0Edemission0Epour0Esinscrire0E235722/story01.htm
p3
aVhttp://rue89.feedsportal.com/c/33822/f/608948/s/2437c09a/l/0L0Srue890N0Crue890Eculture0Czapnet0C20A120C10A0C0A70Cune0Evie0Ede0Emoins0Ezebda0Eet0Ejean0Epierre0Efiliu0Echante0Epour0Egaza0E235965/story01.htm
p4
aVhttp://rue89.feedsportal.com/c/33822/f/608948/s/243d17bb/l/0L0Srue89lyon0Bfr0C20A120C10A0C0A60Cle0Ecolloque0Equi0Eexaspere0Eles0Eprostituees0Elyonnaises0C/story01.htm
p5
aVhttp://www.lemonde.fr/politique/article/2012/10/10/le-parlement-adopte-definitivement-les-emplois-d-avenir_1772688_823448.html#ens_id=1728859&#38;xtor=RSS-3208
p6
aVhttp://rue89.feedsportal.com/c/33822/f/608948/s/2434dec4/l/0L0Srue890N0Crue890Epolitique0C20A120C10A0C0A70Clionnel0Eluca0Eles0E20Ejeunes0Edechirolles0Emorts0Ecar0Etrop0Eassimiles0E235960A/story01.htm
p7
aVhttp://rue89.feedsportal.com/c/33822/f/608948/s/243c2414/l/0Lblogs0Brue890N0Cnode2276250C20A120C10A0C0A80Cfrappee0Epar0Ela0Ecrise0Eune0Eville0Eamericaine0Evire0Etous0Eses0Epoliciers0E228572/story01.htm
p8
aVhttp://rue89.feedsportal.com/c/33822/f/608948/s/243b1730/l/0L0Srue890N0C20A120C10A0C0A80Cpourquoi0Eles0Emedias0Ene0Edevraient0Epas0Emordre0Ele0Epain0Eau0Echocolat0Ede0Ecope0E235976/story01.htm
p9
aVhttp://rue89.feedsportal.com/c/33822/f/608948/s/2435ae89/l/0L0Srue890N0C20A120C10A0C0A70Cquest0Ece0Equon0Eattend0Epour0Ereformer0Ela0Etaxe0Edhabitation0E235599/story01.htm
p10
aVhttp://rue89.feedsportal.com/c/33822/f/608948/s/243f15a7/l/0L0Srue890N0Czapnet0C20A120C10A0C0A80Cdeux0Emots0Epour0Emettre0Edelahousse0Emal0Elaise0Equeutard0Eet0Epujadas0E235996/story01.htm
p11
aVhttp://rue89.feedsportal.com/c/33822/f/608948/s/2439d5a6/l/0L0Srue890N0C20A120C0A90C180Cles0Esalafistes0Een0Efrance0Eun0Eprobleme0Esocial0Epas0Ereligieux0E23540A2/story01.htm
p12
aVhttp://rue89.feedsportal.com/c/33822/f/608948/s/2449e32c/l/0L0Srue890N0C20A120C10A0C0A90Cun0Evigile0Etape0Eun0Eetudiant0Eil0Enavait0Epas0Ecompris0Eque0Ecetait0Eun0Ecours0E2360A20A/story01.htm
p13
aVhttp://rue89.feedsportal.com/c/33822/f/608948/s/2435ab1c/l/0Lblogs0Brue890N0Cwieviorka0C20A120C10A0C0A60Ccirconcision0Eet0Ehalal0Eles0Ehabits0Euniversalistes0Ede0Elintolerance0Eet0Edu/story01.htm
p14
aVhttp://rue89.feedsportal.com/c/33822/f/608948/s/2449e6a8/l/0L0Srue890N0C20A120C10A0C0A90Cgrece0Ela0Echanceliere0Eallemande0Eaccueillie0Eaux0Ecris0Ede0Eheil0Emerkel0E2360A28/story01.htm
p15
aVhttp://rue89.feedsportal.com/c/33822/f/608948/s/2434022f/l/0L0Srue890N0C20A120C10A0C0A70Cchaos0Een0Esyrie0Edans0Eles0Edeux0Ecamps0Ekidnappe0Epour0Ede0Elargent0E235949/story01.htm
p16
aVhttp://rue89.feedsportal.com/c/33822/f/608948/s/244953f9/l/0L0Srue890N0Crue890Eculture0C20A120C10A0C0A90Cchere0Epatagonie0Eentre0Ewestern0Eet0Equete0Edidentite0Eune0Esublime0Ebd0Evenue/story01.htm
p17
aVhttp://rue89.feedsportal.com/c/33822/f/608948/s/2447dbdb/l/0L0Srue890N0Crue890Esport0Czapnet0C20A120C10A0C0A90Clautrichien0Ebaumgartner0Etente0Ede0Efranchir0Ele0Emur0Edu0Eson0Een0Echute0Elibre/story01.htm
p18
aVhttp://rue89.feedsportal.com/c/33822/f/608948/s/24403cd3/l/0L0Srue890N0Crue890Eeco0C20A120C10A0C0A80Cdire0Eque0Eje0Esuis0Ehomo0Eau0Eboulot0Ecest0Erisque0Evoila0Epourquoi0E235964/story01.htm
p19
aVhttp://www.lemonde.fr/elections-americaines/article/2012/10/09/mitt-romney-confirme-sa-percee-dans-les-sondages_1772674_829254.html#ens_id=1550858&#38;xtor=RSS-3208
p20
aVhttp://rue89.feedsportal.com/c/33822/f/608948/s/2449f307/l/0L0Srue890N0Crue890Epolitique0C20A120C10A0C0A90Cpour0Eou0Econtre0Elecole0Ele0Emercredi0E2360A24/story01.htm
p21
aVhttp://rue89.feedsportal.com/c/33822/f/608948/s/242f5a23/l/0L0Srue890N0Crue890Epolitique0C20A120C10A0C0A60Cpain0Eau0Echocolat0Enouvelle0Eprovocation0Ede0Ejean0Efrancois0Ecope0Etournee0Een/story01.htm
p22
aVhttp://rue89.feedsportal.com/c/33822/f/608948/s/24337df8/l/0L0Srue890N0Crue890Esport0C20A120C10A0C0A70Cavant0Eom0Epsg0Edecouvrez0Emarco0Everratti0Ele0Ecrack0Einattendu0Ede0Eparis0E235932/story01.htm
p23
aVhttp://rue89.feedsportal.com/c/33822/f/608948/s/24462af7/l/0L0Srue890N0C20A120C10A0C0A90Cmon0Etelephone0Ephotographie0Eson0Evoleur0Ela0Ebac0Eest0Econtente0E2360A0A9/story01.htm
p24
aVhttp://rue89.feedsportal.com/c/33822/f/608948/s/2448995c/l/0L0Srue890N0Czapnet0C20A120C10A0C0A90Cun0Eboeing0Equi0Esecrase0Evu0Ede0Elinterieur0Eca0Eressemble0Eca0E2360A22/story01.htm
p25
aVhttp://rue89.feedsportal.com/c/33822/f/608948/s/24352bae/l/0L0Srue890N0Crue890Esport0C20A120C10A0C0A70Cet0Eoui0Eetre0Emarseillais0Eet0Esupporter0Edu0Epsg0Ecest0Epossible0E235945/story01.htm
p26
aVhttp://rue89.feedsportal.com/c/33822/f/608948/s/24305ccd/l/0Lblogs0Brue890N0Cdroles0Ede0Egammes0C20A120C10A0C0A60Cboris0Eberezovsky0Ele0Epiano0Epour0Eforteresse0E22860A0A/story01.htm
p27
aVhttp://rue89.feedsportal.com/c/33822/f/608948/s/2437060d/l/0L0Srue890N0Crue890Esport0C20A120C10A0C0A70Csuivez0Ele0Echoc0Eom0Epsg0Een0Edirect0Emais0Echoisissez0Evotre0Ecamp0E235899/story01.htm
p28
aVhttp://rue89.feedsportal.com/c/33822/f/608948/s/243c1c7f/l/0L0Srue890N0C20A120C10A0C0A80Cdiams0Evue0Edarabie0Esaoudite0Ecest0Ela0Efaute0Eaux0Ecatholiques0E235962/story01.htm
p29
aVhttp://rue89.feedsportal.com/c/33822/f/608948/s/242f5a27/l/0L0Srue890N0C20A120C10A0C0A60Clalgorithme0Ede0Egoogle0Esur0Erue890Eet0Edans0Eplace0Ede0Ela0Etoile0Esur0Efrance0Eculture0E235934/story01.htm
p30
aVhttp://rue89.feedsportal.com/c/33822/f/608948/s/243b772e/l/0Lblogs0Brue890N0Clundismatin0C20A120C10A0C0A80Csarah0Epharmacienne0Enous0Esommes0Eceux0Eauxquels0Eles0Egens0Ese0Econfient0Ele0Eplus/story01.htm
p31
aVhttp://www.lemonde.fr/ameriques/article/2012/10/10/bresil-trois-proches-de-l-ex-president-lula-coupables-de-corruption_1772690_3222.html#xtor=RSS-3208
p32
aVhttp://rue89.feedsportal.com/c/33822/f/608948/s/2439da3d/l/0L0Srue890N0Cnode0C235973/story01.htm
p33
aVhttp://rue89.feedsportal.com/c/33822/f/608948/s/243e8309/l/0L0Srue890N0Crue890Epolitique0C20A120C10A0C0A80Csi0Em0Emoscovici0Evous0Emenez0Eune0Epolitique0Edausterite0E235978/story01.htm
p34
aVhttp://rue89.feedsportal.com/c/33822/f/608948/s/243e7551/l/0L0Srue890N0Crue890Eculture0C20A120C10A0C0A80Cart0Econtemporain0Ebertille0Ebak0Esi0Ejeune0Edans0Eun0Esi0Egrand0Emusee0E235979/story01.htm
p35
aVhttp://rue89.feedsportal.com/c/33822/f/608948/s/243650f7/l/0Lblogs0Brue890N0Cseries0Etelling0C20A120C10A0C0A70Chomeland0Ele0Eposter0Eboy0Eet0Ela0Ebipolaire0Equi0Emanquaient0Eloriginal0Eisraelien/story01.htm
p36
aVhttp://rue89.feedsportal.com/c/33822/f/608948/s/2433fe6c/l/0L0Srue890N0Cnode0C235952/story01.htm
p37
aVhttp://rue89.feedsportal.com/c/33822/f/608948/s/24340d93/l/0L0Srue890N0Crue890Eculture0C20A120C10A0C0A70Ceh0Emec0Eelle0Eest0Eou0Eta0Epremiere0Ecaisse0Ecinq0Erappeurs0Ese0Esouviennent0E235954/story01.htm
p38
aVhttp://rue89.feedsportal.com/c/33822/f/608948/s/2447642c/l/0L0Srue890N0Crue890Eculture0C20A120C10A0C0A90Credecouvrir0Edambudzo0Emarechera0Elecrivain0Emaudit0Edu0Ezimbabwe0E2360A19/story01.htm
p39
aVhttp://rue89.feedsportal.com/c/33822/f/608948/s/2430f60f/l/0L0Srue890N0C20A120C10A0C0A60Clirm0Efonctionnelle0Esalut0Eje0Esuis0Eton0Ecerveau0Eet0Eje0Evais0Etenvoyer0Een0Eprison0E235476/story01.htm
p40
aVhttp://rue89.feedsportal.com/c/33822/f/608948/s/24450900/l/0L0Srue890N0C20A120C10A0C0A90Clunettes0Ede0Epulvar0E20A0E0A0A0A0Eeuros0Ede0Ebachelot0Eplus0Ele0Etemps0Ede0Esindigner0E2360A0A4/story01.htm
p41
aVhttp://rue89.feedsportal.com/c/33822/f/608948/s/242f0577/l/0L0Srue890N0C20A120C10A0C0A60Cun0Ehomme0Eabattu0Estrasbourg0Eun0Epolicier0Eraconte0Eloperation0Eantiterroriste0E235942/story01.htm
p42
aVhttp://rue89.feedsportal.com/c/33822/f/608948/s/2443c663/l/0L0Srue890N0Czapnet0C20A120C10A0C0A90Cfrance0E20Ediffuse0Eun0Eclip0Ede0Erap0Ede0Ejeremie0Elouis0Esidney0E2360A0A1/story01.htm
p43
aVhttp://rue89.feedsportal.com/c/33822/f/608948/s/24489dc6/l/0L0Srue890N0C20A120C10A0C0A90Cbete0Esexiste0Emachiste0Ela0Eune0Ede0Elexpress0Evotez0E2360A29/story01.htm
p44
aVhttp://rue89.feedsportal.com/c/33822/f/608948/s/24477004/l/0L0Srue890N0Crue890Eeco0C20A120C10A0C0A90Csanofi0Esupprime0Edes0Eemplois0Emais0Elance0Eune0Eboisson0Eavec0Ecoca0Ecola0E2360A17/story01.htm
p45
aVhttp://rue89.feedsportal.com/c/33822/f/608948/s/2430fa72/l/0L0Srue890N0Crue890Esport0Czapnet0C20A120C10A0C0A60Cles0Evignerons0Ealsaciens0Eont0Ede0Equoi0Een0Evouloir0Eau0Epilote0Ede0Erallye/story01.htm
p46
aVhttp://www.lemonde.fr/libye/article/2012/10/10/un-responsable-americain-livre-plus-de-details-sur-l-attaque-contre-le-consulat-a-benghazi_1772697_1496980.html#xtor=RSS-3208
p47
aVhttp://rue89.feedsportal.com/c/33822/f/608948/s/24466d80/l/0L0Srue890N0Crue890Epolitique0C20A120C10A0C0A90Ccarte0Evotre0Eprefet0Et0Eil0Eete0Enomme0Esous0Ehollande0Eou0Esous0Esarkozy0E2360A0A2/story01.htm
p48
aVhttp://rue89.feedsportal.com/c/33822/f/608948/s/243d9bd9/l/0L0Srue890N0C20A120C10A0C0A80Coperation0Eantiterroriste0Equelles0Esont0Eles0Epreuves0Eet0Eautres0Equestions0E235986/story01.htm
p49
aVhttp://rue89.feedsportal.com/c/33822/f/608948/s/244012c5/l/0L0Srue890N0Crue890Eeco0C20A120C10A0C0A80Cvictoire0Edes0Epigeons0Ele0Elobbying0Edu0Esecret0Eest0Een0Ebout0Ede0Ecourse0E235975/story01.htm
p50
aVhttp://rue89.feedsportal.com/c/33822/f/608948/s/2433e002/l/0Lblogs0Brue890N0Camerique0Edans0Ela0Epeau0C20A120C10A0C0A70Cetats0Eunis0Emitt0Eromney0Epresident0Esouriez0Evous0Eetes0Evires0E22860A6/story01.htm
p51
aVhttp://rue89.feedsportal.com/c/33822/f/608948/s/24348f30/l/0L0Srue890N0C20A120C10A0C0A70Cchine0Ecanton0Ela0Eresistance0Esans0Eespoir0Edes0Ehabitants0Eexpulses0E235933/story01.htm
p52
aVhttp://rue89.feedsportal.com/c/33822/f/608948/s/24315246/l/0L0Srue890N0C20A120C10A0C0A60Cje0Eme0Esouviens0Ede0Edirect0E80Een0Ehuit0Evideos0E235925/story01.htm
p53
aVhttp://rue89.feedsportal.com/c/33822/f/608948/s/2444b10a/l/0L0Srue89lyon0Bfr0C20A120C10A0C0A90Cetudiants0Econtraints0Emodes0Econsommation0Ealternatifs0C/story01.htm
p54
aVhttp://rue89.feedsportal.com/c/33822/f/608948/s/24466ae5/l/0L0Srue890N0Crue890Eeco0C20A120C10A0C0A90Cun0Ejeune0Esur0Ecinq0Esans0Ediplome0Ece0Enest0Epas0Eune0Efatalite0E2360A11/story01.htm
p55
atRp56
.